target datalayout = "e-m:e-p270:32:32-p271:32:32-p272:64:64-i64:64-i128:128-f80:128-n8:16:32:64-S128"
target triple = "x86_64-pc-linux-gnu"

%struct.lg4ff_device = type { i16, i16, [16 x %struct.lg4ff_effect_state], [4 x %struct.lg4ff_slot], i32, i32, i32, i32, i32, i32, i32, ptr, i8, ptr, [256 x i8], ptr, i8 }
%struct.lg4ff_effect_state = type { %union.SDL_HapticEffect, i64, i64, i64, i32, i64, i64, i32, i32, i32, double, i32, i8 }
%union.SDL_HapticEffect = type { %struct.SDL_HapticCustom, [16 x i8] }
%struct.SDL_HapticCustom = type { i16, %struct.SDL_HapticDirection, i32, i16, i16, i16, i8, i16, i16, ptr, i16, i16, i16, i16 }
%struct.SDL_HapticDirection = type { i8, [3 x i32] }
%struct.lg4ff_slot = type { i32, %struct.lg4ff_effect_parameters, [7 x i8], i32, i8, i32 }
%struct.lg4ff_effect_parameters = type { i32, i32, i32, i32, i32, i32 }
%struct.SDL_HIDAPI_HapticDevice = type { ptr, ptr, ptr, ptr }

; Function Attrs: nounwind uwtable
define internal zeroext i1 @lg4ff_effect_slot_valid_active(ptr noundef %0, i32 noundef %1) #0 {
  %3 = alloca i1, align 1
  %4 = alloca ptr, align 8
  %5 = alloca i32, align 4
  store ptr %0, ptr %4, align 8
  store i32 %1, ptr %5, align 4
  %6 = load i32, ptr %5, align 4
  %7 = icmp sge i32 %6, 16
  br i1 %7, label %11, label %8

8:                                                ; preds = %2
  %9 = load i32, ptr %5, align 4
  %10 = icmp slt i32 %9, 0
  br i1 %10, label %11, label %12

11:                                               ; preds = %8, %2
  store i1 false, ptr %3, align 1
  br label %23

12:                                               ; preds = %8
  %13 = load ptr, ptr %4, align 8
  %14 = getelementptr inbounds nuw %struct.lg4ff_device, ptr %13, i32 0, i32 2
  %15 = load i32, ptr %5, align 4
  %16 = sext i32 %15 to i64
  %17 = getelementptr inbounds [16 x %struct.lg4ff_effect_state], ptr %14, i64 0, i64 %16
  %18 = getelementptr inbounds nuw %struct.lg4ff_effect_state, ptr %17, i32 0, i32 12
  %19 = load i8, ptr %18, align 4, !range !5, !noundef !6
  %20 = trunc i8 %19 to i1
  br i1 %20, label %22, label %21

21:                                               ; preds = %12
  store i1 false, ptr %3, align 1
  br label %23

22:                                               ; preds = %12
  store i1 true, ptr %3, align 1
  br label %23

23:                                               ; preds = %22, %21, %11
  %24 = load i1, ptr %3, align 1
  ret i1 %24
}

; Function Attrs: nounwind uwtable
define internal void @SDL_HIDAPI_HapticDriverLg4ff_DestroyEffect(ptr noundef %0, i32 noundef %1) #0 {
  %3 = alloca ptr, align 8
  %4 = alloca i32, align 4
  %5 = alloca ptr, align 8
  %6 = alloca ptr, align 8
  %7 = alloca i32, align 4
  store ptr %0, ptr %3, align 8
  store i32 %1, ptr %4, align 4
  call void @llvm.lifetime.start.p0(i64 8, ptr %5) #6
  %8 = load ptr, ptr %3, align 8
  %9 = getelementptr inbounds nuw %struct.SDL_HIDAPI_HapticDevice, ptr %8, i32 0, i32 3
  %10 = load ptr, ptr %9, align 8
  store ptr %10, ptr %5, align 8
  call void @llvm.lifetime.start.p0(i64 8, ptr %6) #6
  %11 = load ptr, ptr %5, align 8
  %12 = getelementptr inbounds nuw %struct.lg4ff_device, ptr %11, i32 0, i32 15
  %13 = load ptr, ptr %12, align 8
  call void @SDL_LockMutex_REAL(ptr noundef %13)
  %14 = load ptr, ptr %5, align 8
  %15 = load i32, ptr %4, align 4
  %16 = call zeroext i1 @lg4ff_effect_slot_valid_active(ptr noundef %14, i32 noundef %15)
  br i1 %16, label %21, label %17

17:                                               ; preds = %2
  %18 = load ptr, ptr %5, align 8
  %19 = getelementptr inbounds nuw %struct.lg4ff_device, ptr %18, i32 0, i32 15
  %20 = load ptr, ptr %19, align 8
  call void @SDL_UnlockMutex_REAL(ptr noundef %20)
  store i32 1, ptr %7, align 4
  br label %34

21:                                               ; preds = %2
  %22 = load ptr, ptr %5, align 8
  %23 = getelementptr inbounds nuw %struct.lg4ff_device, ptr %22, i32 0, i32 2
  %24 = load i32, ptr %4, align 4
  %25 = sext i32 %24 to i64
  %26 = getelementptr inbounds [16 x %struct.lg4ff_effect_state], ptr %23, i64 0, i64 %25
  store ptr %26, ptr %6, align 8
  %27 = load ptr, ptr %6, align 8
  %28 = getelementptr inbounds nuw %struct.lg4ff_effect_state, ptr %27, i32 0, i32 4
  store i32 0, ptr %28, align 8
  %29 = load ptr, ptr %6, align 8
  %30 = getelementptr inbounds nuw %struct.lg4ff_effect_state, ptr %29, i32 0, i32 12
  store i8 0, ptr %30, align 4
  %31 = load ptr, ptr %5, align 8
  %32 = getelementptr inbounds nuw %struct.lg4ff_device, ptr %31, i32 0, i32 15
  %33 = load ptr, ptr %32, align 8
  call void @SDL_UnlockMutex_REAL(ptr noundef %33)
  store i32 0, ptr %7, align 4
  br label %34

34:                                               ; preds = %21, %17
  call void @llvm.lifetime.end.p0(i64 8, ptr %6) #6
  call void @llvm.lifetime.end.p0(i64 8, ptr %5) #6
  %35 = load i32, ptr %7, align 4
  switch i32 %35, label %37 [
    i32 0, label %36
    i32 1, label %36
  ]

36:                                               ; preds = %34, %34
  ret void

37:                                               ; preds = %34
  unreachable
}